target datalayout = "e-m:e-p270:32:32-p271:32:32-p272:64:64-i64:64-i128:128-f80:128-n8:16:32:64-S128"
target triple = "x86_64-pc-linux-gnu"

; Function Attrs: nounwind uwtable
define internal void @CopyBW2Grey8(ptr noundef %0, i32 noundef %1, ptr noundef %2, i32 noundef %3, i32 noundef %4, i32 noundef %5) #0 {
  %7 = alloca ptr, align 8
  %8 = alloca i32, align 4
  %9 = alloca ptr, align 8
  %10 = alloca i32, align 4
  %11 = alloca i32, align 4
  %12 = alloca i32, align 4
  %13 = alloca ptr, align 8
  %14 = alloca ptr, align 8
  %15 = alloca i32, align 4
  %16 = alloca i32, align 4
  %17 = alloca i32, align 4
  %18 = alloca i32, align 4
  %19 = alloca ptr, align 8
  %20 = alloca ptr, align 8
  %21 = alloca i32, align 4
  store ptr %0, ptr %7, align 8
  store i32 %1, ptr %8, align 4
  store ptr %2, ptr %9, align 8
  store i32 %3, ptr %10, align 4
  store i32 %4, ptr %11, align 4
  store i32 %5, ptr %12, align 4
  %22 = load ptr, ptr %7, align 8
  store ptr %22, ptr %13, align 8
  %23 = load ptr, ptr %9, align 8
  store ptr %23, ptr %14, align 8
  %24 = load i32, ptr %11, align 4
  %25 = ashr i32 %24, 3
  store i32 %25, ptr %15, align 4
  %26 = load i32, ptr %11, align 4
  %27 = and i32 %26, 7
  store i32 %27, ptr %16, align 4
  br label %28

28:                                               ; preds = %97, %6
  %29 = load i32, ptr %12, align 4
  %30 = add nsw i32 %29, -1
  store i32 %30, ptr %12, align 4
  %31 = icmp ne i32 %29, 0
  br i1 %31, label %32, label %98

32:                                               ; preds = %28
  %33 = load ptr, ptr %13, align 8
  store ptr %33, ptr %19, align 8
  %34 = load ptr, ptr %14, align 8
  store ptr %34, ptr %20, align 8
  %35 = load i32, ptr %8, align 4
  %36 = load ptr, ptr %13, align 8
  %37 = sext i32 %35 to i64
  %38 = getelementptr inbounds i8, ptr %36, i64 %37
  store ptr %38, ptr %13, align 8
  %39 = load i32, ptr %10, align 4
  %40 = load ptr, ptr %14, align 8
  %41 = sext i32 %39 to i64
  %42 = getelementptr inbounds i8, ptr %40, i64 %41
  store ptr %42, ptr %14, align 8
  store i32 0, ptr %17, align 4
  br label %43

43:                                               ; preds = %69, %32
  %44 = load i32, ptr %17, align 4
  %45 = load i32, ptr %15, align 4
  %46 = icmp slt i32 %44, %45
  br i1 %46, label %47, label %72

47:                                               ; preds = %43
  %48 = load ptr, ptr %19, align 8
  %49 = getelementptr inbounds i8, ptr %48, i32 1
  store ptr %49, ptr %19, align 8
  %50 = load i8, ptr %48, align 1
  %51 = zext i8 %50 to i32
  store i32 %51, ptr %21, align 4
  store i32 0, ptr %18, align 4
  br label %52

52:                                               ; preds = %65, %47
  %53 = load i32, ptr %18, align 4
  %54 = icmp slt i32 %53, 8
  br i1 %54, label %55, label %68

55:                                               ; preds = %52
  %56 = load i32, ptr %21, align 4
  %57 = and i32 %56, 128
  %58 = icmp ne i32 %57, 0
  %59 = select i1 %58, i32 255, i32 0
  %60 = trunc i32 %59 to i8
  %61 = load ptr, ptr %20, align 8
  %62 = getelementptr inbounds i8, ptr %61, i32 1
  store ptr %62, ptr %20, align 8
  store i8 %60, ptr %61, align 1
  %63 = load i32, ptr %21, align 4
  %64 = shl i32 %63, 1
  store i32 %64, ptr %21, align 4
  br label %65

65:                                               ; preds = %55
  %66 = load i32, ptr %18, align 4
  %67 = add nsw i32 %66, 1
  store i32 %67, ptr %18, align 4
  br label %52, !llvm.loop !8

68:                                               ; preds = %52
  br label %69

69:                                               ; preds = %68
  %70 = load i32, ptr %17, align 4
  %71 = add nsw i32 %70, 1
  store i32 %71, ptr %17, align 4
  br label %43, !llvm.loop !9

72:                                               ; preds = %43
  %73 = load i32, ptr %16, align 4
  %74 = icmp ne i32 %73, 0
  br i1 %74, label %75, label %97

75:                                               ; preds = %72
  %76 = load ptr, ptr %19, align 8
  %77 = load i8, ptr %76, align 1
  %78 = zext i8 %77 to i32
  store i32 %78, ptr %21, align 4
  store i32 0, ptr %18, align 4
  br label %79

79:                                               ; preds = %93, %75
  %80 = load i32, ptr %18, align 4
  %81 = load i32, ptr %16, align 4
  %82 = icmp slt i32 %80, %81
  br i1 %82, label %83, label %96

83:                                               ; preds = %79
  %84 = load i32, ptr %21, align 4
  %85 = and i32 %84, 128
  %86 = icmp ne i32 %85, 0
  %87 = select i1 %86, i32 255, i32 0
  %88 = trunc i32 %87 to i8
  %89 = load ptr, ptr %20, align 8
  %90 = getelementptr inbounds i8, ptr %89, i32 1
  store ptr %90, ptr %20, align 8
  store i8 %88, ptr %89, align 1
  %91 = load i32, ptr %21, align 4
  %92 = shl i32 %91, 1
  store i32 %92, ptr %21, align 4
  br label %93

93:                                               ; preds = %83
  %94 = load i32, ptr %18, align 4
  %95 = add nsw i32 %94, 1
  store i32 %95, ptr %18, align 4
  br label %79, !llvm.loop !10

96:                                               ; preds = %79
  br label %97

97:                                               ; preds = %96, %72
  br label %28, !llvm.loop !11

98:                                               ; preds = %28
  ret void
}