; Function Attrs: nofree norecurse nosync nounwind memory(readwrite, inaccessiblemem: none) uwtable
define internal fastcc void @CopyBW2Grey8(ptr nocapture noundef readonly %0, i32 noundef %1, ptr nocapture noundef writeonly %2, i32 noundef %3, i32 noundef %4, i32 noundef %5) unnamed_addr #14 {
  %7 = lshr i32 %4, 3
  %8 = and i32 %4, 7
  %9 = add nsw i32 %5, -1
  %.not51 = icmp eq i32 %5, 0
  br i1 %.not51, label %._crit_edge56, label %.lr.ph55

.lr.ph55:                                         ; preds = %6
  %10 = sext i32 %1 to i64
  %11 = zext nneg i32 %3 to i64
  %.not60 = icmp ult i32 %4, 8
  %.not37 = icmp eq i32 %8, 0
  br i1 %.not60, label %.lr.ph55.split, label %.lr.ph55.split.us

.lr.ph55.split.us:                                ; preds = %.lr.ph55
  br i1 %.not37, label %.lr.ph.us.us, label %.lr.ph.us

.lr.ph.us.us:                                     ; preds = %.lr.ph55.split.us, %._crit_edge.us.us
  %12 = phi i32 [ %27, %._crit_edge.us.us ], [ %9, %.lr.ph55.split.us ]
  %.03453.us.us = phi ptr [ %13, %._crit_edge.us.us ], [ %0, %.lr.ph55.split.us ]
  %.03552.us.us = phi ptr [ %26, %._crit_edge.us.us ], [ %2, %.lr.ph55.split.us ]
  %13 = getelementptr inbounds i8, ptr %.03453.us.us, i64 %10
  br label %14

14:                                               ; preds = %17, %.lr.ph.us.us
  %.02746.us.us = phi ptr [ %.03552.us.us, %.lr.ph.us.us ], [ %23, %17 ]
  %.02945.us.us = phi ptr [ %.03453.us.us, %.lr.ph.us.us ], [ %18, %17 ]
  %.03244.us.us = phi i32 [ 0, %.lr.ph.us.us ], [ %19, %17 ]
  %15 = load i8, ptr %.02945.us.us, align 1
  %16 = zext i8 %15 to i32
  br label %20

17:                                               ; preds = %20
  %18 = getelementptr inbounds i8, ptr %.02945.us.us, i64 1
  %19 = add nuw nsw i32 %.03244.us.us, 1
  %exitcond69.not = icmp eq i32 %19, %7
  br i1 %exitcond69.not, label %._crit_edge.us.us, label %14, !llvm.loop !9

20:                                               ; preds = %20, %14
  %.043.us.us = phi i32 [ %16, %14 ], [ %24, %20 ]
  %.12842.us.us = phi ptr [ %.02746.us.us, %14 ], [ %23, %20 ]
  %.03041.us.us = phi i32 [ 0, %14 ], [ %25, %20 ]
  %21 = shl i32 %.043.us.us, 24
  %sext40.us.us = ashr i32 %21, 31
  %22 = trunc nsw i32 %sext40.us.us to i8
  %23 = getelementptr inbounds i8, ptr %.12842.us.us, i64 1
  store i8 %22, ptr %.12842.us.us, align 1
  %24 = shl i32 %.043.us.us, 1
  %25 = add nuw nsw i32 %.03041.us.us, 1
  %exitcond68.not = icmp eq i32 %25, 8
  br i1 %exitcond68.not, label %17, label %20, !llvm.loop !10

._crit_edge.us.us:                                ; preds = %17
  %26 = getelementptr inbounds i8, ptr %.03552.us.us, i64 %11
  %27 = add nsw i32 %12, -1
  %.not.us.us = icmp eq i32 %12, 0
  br i1 %.not.us.us, label %._crit_edge56, label %.lr.ph.us.us, !llvm.loop !11

.lr.ph.us:                                        ; preds = %.lr.ph55.split.us, %.loopexit.us
  %28 = phi i32 [ %49, %.loopexit.us ], [ %9, %.lr.ph55.split.us ]
  %.03453.us = phi ptr [ %29, %.loopexit.us ], [ %0, %.lr.ph55.split.us ]
  %.03552.us = phi ptr [ %48, %.loopexit.us ], [ %2, %.lr.ph55.split.us ]
  %29 = getelementptr inbounds i8, ptr %.03453.us, i64 %10
  br label %36

30:                                               ; preds = %30, %._crit_edge.us
  %.150.us = phi i32 [ %51, %._crit_edge.us ], [ %34, %30 ]
  %.249.us = phi ptr [ %45, %._crit_edge.us ], [ %33, %30 ]
  %.13148.us = phi i32 [ 0, %._crit_edge.us ], [ %35, %30 ]
  %31 = shl i32 %.150.us, 24
  %sext.us = ashr i32 %31, 31
  %32 = trunc nsw i32 %sext.us to i8
  %33 = getelementptr inbounds i8, ptr %.249.us, i64 1
  store i8 %32, ptr %.249.us, align 1
  %34 = shl i32 %.150.us, 1
  %35 = add nuw nsw i32 %.13148.us, 1
  %exitcond67.not = icmp eq i32 %35, %8
  br i1 %exitcond67.not, label %.loopexit.us, label %30, !llvm.loop !12

36:                                               ; preds = %.lr.ph.us, %39
  %.02746.us = phi ptr [ %.03552.us, %.lr.ph.us ], [ %45, %39 ]
  %.02945.us = phi ptr [ %.03453.us, %.lr.ph.us ], [ %40, %39 ]
  %.03244.us = phi i32 [ 0, %.lr.ph.us ], [ %41, %39 ]
  %37 = load i8, ptr %.02945.us, align 1
  %38 = zext i8 %37 to i32
  br label %42

39:                                               ; preds = %42
  %40 = getelementptr inbounds i8, ptr %.02945.us, i64 1
  %41 = add nuw nsw i32 %.03244.us, 1
  %exitcond66.not = icmp eq i32 %41, %7
  br i1 %exitcond66.not, label %._crit_edge.us, label %36, !llvm.loop !9

42:                                               ; preds = %42, %36
  %.043.us = phi i32 [ %38, %36 ], [ %46, %42 ]
  %.12842.us = phi ptr [ %.02746.us, %36 ], [ %45, %42 ]
  %.03041.us = phi i32 [ 0, %36 ], [ %47, %42 ]
  %43 = shl i32 %.043.us, 24
  %sext40.us = ashr i32 %43, 31
  %44 = trunc nsw i32 %sext40.us to i8
  %45 = getelementptr inbounds i8, ptr %.12842.us, i64 1
  store i8 %44, ptr %.12842.us, align 1
  %46 = shl i32 %.043.us, 1
  %47 = add nuw nsw i32 %.03041.us, 1
  %exitcond.not = icmp eq i32 %47, 8
  br i1 %exitcond.not, label %39, label %42, !llvm.loop !10

.loopexit.us:                                     ; preds = %30
  %48 = getelementptr inbounds i8, ptr %.03552.us, i64 %11
  %49 = add nsw i32 %28, -1
  %.not.us = icmp eq i32 %28, 0
  br i1 %.not.us, label %._crit_edge56, label %.lr.ph.us, !llvm.loop !11

._crit_edge.us:                                   ; preds = %39
  %50 = load i8, ptr %40, align 1
  %51 = zext i8 %50 to i32
  br label %30

.lr.ph55.split:                                   ; preds = %.lr.ph55
  br i1 %.not37, label %._crit_edge56, label %.lr.ph55.split.split

.lr.ph55.split.split:                             ; preds = %.lr.ph55.split, %.loopexit
  %52 = phi i32 [ %63, %.loopexit ], [ %9, %.lr.ph55.split ]
  %.03453 = phi ptr [ %53, %.loopexit ], [ %0, %.lr.ph55.split ]
  %.03552 = phi ptr [ %62, %.loopexit ], [ %2, %.lr.ph55.split ]
  %53 = getelementptr inbounds i8, ptr %.03453, i64 %10
  %54 = load i8, ptr %.03453, align 1
  %55 = zext i8 %54 to i32
  br label %56

56:                                               ; preds = %.lr.ph55.split.split, %56
  %.150 = phi i32 [ %55, %.lr.ph55.split.split ], [ %60, %56 ]
  %.249 = phi ptr [ %.03552, %.lr.ph55.split.split ], [ %59, %56 ]
  %.13148 = phi i32 [ 0, %.lr.ph55.split.split ], [ %61, %56 ]
  %57 = shl i32 %.150, 24
  %sext = ashr i32 %57, 31
  %58 = trunc nsw i32 %sext to i8
  %59 = getelementptr inbounds i8, ptr %.249, i64 1
  store i8 %58, ptr %.249, align 1
  %60 = shl i32 %.150, 1
  %61 = add nuw nsw i32 %.13148, 1
  %exitcond70.not = icmp eq i32 %61, %8
  br i1 %exitcond70.not, label %.loopexit, label %56, !llvm.loop !12

.loopexit:                                        ; preds = %56
  %62 = getelementptr inbounds i8, ptr %.03552, i64 %11
  %63 = add nsw i32 %52, -1
  %.not = icmp eq i32 %52, 0
  br i1 %.not, label %._crit_edge56, label %.lr.ph55.split.split, !llvm.loop !11

._crit_edge56:                                    ; preds = %.loopexit.us, %._crit_edge.us.us, %.loopexit, %.lr.ph55.split, %6
  ret void
}